target datalayout = "e-m:e-p270:32:32-p271:32:32-p272:64:64-i64:64-i128:128-f80:128-n8:16:32:64-S128"
target triple = "x86_64-pc-linux-gnu"

%"class.o3dgc::BinaryStream" = type <{ %"class.o3dgc::Vector", i32, [4 x i8] }>
%"class.o3dgc::Vector" = type { ptr, i64, i64 }
%"class.o3dgc::Vector.0" = type { ptr, i64, i64 }

; Function Attrs: inlinehint mustprogress nounwind uwtable
define linkonce_odr hidden noundef i64 @_ZN5o3dgc9UIntToIntEm(i64 noundef %0) #8 comdat {
  %2 = alloca i64, align 8
  store i64 %0, ptr %2, align 8
  %3 = load i64, ptr %2, align 8
  %4 = and i64 %3, 1
  %5 = icmp ne i64 %4, 0
  br i1 %5, label %6, label %11

6:                                                ; preds = %1
  %7 = load i64, ptr %2, align 8
  %8 = add i64 %7, 1
  %9 = lshr i64 %8, 1
  %10 = sub nsw i64 0, %9
  br label %14

11:                                               ; preds = %1
  %12 = load i64, ptr %2, align 8
  %13 = lshr i64 %12, 1
  br label %14

14:                                               ; preds = %11, %6
  %15 = phi i64 [ %10, %6 ], [ %13, %11 ]
  ret i64 %15
}

; Function Attrs: mustprogress nounwind uwtable
define linkonce_odr hidden noundef i64 @_ZNK5o3dgc12BinaryStream13ReadUIntASCIIERm(ptr noundef nonnull align 8 dereferenceable(28) %0, ptr noundef nonnull align 8 dereferenceable(8) %1) #2 comdat align 2 {
  %3 = alloca ptr, align 8
  %4 = alloca ptr, align 8
  %5 = alloca i64, align 8
  %6 = alloca i64, align 8
  %7 = alloca i64, align 8
  store ptr %0, ptr %3, align 8
  store ptr %1, ptr %4, align 8
  %8 = load ptr, ptr %3, align 8
  call void @llvm.lifetime.start.p0(i64 8, ptr %5) #10
  %9 = getelementptr inbounds nuw %"class.o3dgc::BinaryStream", ptr %8, i32 0, i32 0
  %10 = load ptr, ptr %4, align 8
  %11 = load i64, ptr %10, align 8
  %12 = add i64 %11, 1
  store i64 %12, ptr %10, align 8
  %13 = call noundef nonnull align 1 dereferenceable(1) ptr @_ZNK5o3dgc6VectorIhEixEm(ptr noundef nonnull align 8 dereferenceable(24) %9, i64 noundef %11)
  %14 = load i8, ptr %13, align 1
  %15 = zext i8 %14 to i64
  store i64 %15, ptr %5, align 8
  %16 = load i64, ptr %5, align 8
  %17 = icmp eq i64 %16, 127
  br i1 %17, label %18, label %40

18:                                               ; preds = %2
  call void @llvm.lifetime.start.p0(i64 8, ptr %6) #10
  call void @llvm.lifetime.start.p0(i64 8, ptr %7) #10
  store i64 0, ptr %7, align 8
  br label %19

19:                                               ; preds = %35, %18
  %20 = getelementptr inbounds nuw %"class.o3dgc::BinaryStream", ptr %8, i32 0, i32 0
  %21 = load ptr, ptr %4, align 8
  %22 = load i64, ptr %21, align 8
  %23 = add i64 %22, 1
  store i64 %23, ptr %21, align 8
  %24 = call noundef nonnull align 1 dereferenceable(1) ptr @_ZNK5o3dgc6VectorIhEixEm(ptr noundef nonnull align 8 dereferenceable(24) %20, i64 noundef %22)
  %25 = load i8, ptr %24, align 1
  %26 = zext i8 %25 to i64
  store i64 %26, ptr %6, align 8
  %27 = load i64, ptr %6, align 8
  %28 = ashr i64 %27, 1
  %29 = load i64, ptr %7, align 8
  %30 = shl i64 %28, %29
  %31 = load i64, ptr %5, align 8
  %32 = add i64 %31, %30
  store i64 %32, ptr %5, align 8
  %33 = load i64, ptr %7, align 8
  %34 = add i64 %33, 6
  store i64 %34, ptr %7, align 8
  br label %35

35:                                               ; preds = %19
  %36 = load i64, ptr %6, align 8
  %37 = and i64 %36, 1
  %38 = icmp ne i64 %37, 0
  br i1 %38, label %19, label %39, !llvm.loop !25

39:                                               ; preds = %35
  call void @llvm.lifetime.end.p0(i64 8, ptr %7) #10
  call void @llvm.lifetime.end.p0(i64 8, ptr %6) #10
  br label %40

40:                                               ; preds = %39, %2
  %41 = load i64, ptr %5, align 8
  call void @llvm.lifetime.end.p0(i64 8, ptr %5) #10
  ret i64 %41
}

; Function Attrs: mustprogress nounwind uwtable
define linkonce_odr hidden noundef nonnull align 1 dereferenceable(1) ptr @_ZNK5o3dgc6VectorIhEixEm(ptr noundef nonnull align 8 dereferenceable(24) %0, i64 noundef %1) #2 comdat align 2 {
  %3 = alloca ptr, align 8
  %4 = alloca i64, align 8
  store ptr %0, ptr %3, align 8
  store i64 %1, ptr %4, align 8
  %5 = load ptr, ptr %3, align 8
  %6 = getelementptr inbounds nuw %"class.o3dgc::Vector", ptr %5, i32 0, i32 0
  %7 = load ptr, ptr %6, align 8
  %8 = load i64, ptr %4, align 8
  %9 = getelementptr inbounds nuw i8, ptr %7, i64 %8
  ret ptr %9
}

; Function Attrs: mustprogress uwtable
define linkonce_odr hidden void @_ZN5o3dgc6VectorIlE8PushBackERKl(ptr noundef nonnull align 8 dereferenceable(24) %0, ptr noundef nonnull align 8 dereferenceable(8) %1) #0 comdat align 2 {
  %3 = alloca ptr, align 8
  %4 = alloca ptr, align 8
  %5 = alloca ptr, align 8
  store ptr %0, ptr %3, align 8
  store ptr %1, ptr %4, align 8
  %6 = load ptr, ptr %3, align 8
  %7 = getelementptr inbounds nuw %"class.o3dgc::Vector.0", ptr %6, i32 0, i32 2
  %8 = load i64, ptr %7, align 8
  %9 = getelementptr inbounds nuw %"class.o3dgc::Vector.0", ptr %6, i32 0, i32 1
  %10 = load i64, ptr %9, align 8
  %11 = icmp eq i64 %8, %10
  br i1 %11, label %12, label %47

12:                                               ; preds = %2
  %13 = getelementptr inbounds nuw %"class.o3dgc::Vector.0", ptr %6, i32 0, i32 1
  %14 = load i64, ptr %13, align 8
  %15 = mul i64 %14, 2
  store i64 %15, ptr %13, align 8
  %16 = getelementptr inbounds nuw %"class.o3dgc::Vector.0", ptr %6, i32 0, i32 1
  %17 = load i64, ptr %16, align 8
  %18 = icmp ult i64 %17, 32
  br i1 %18, label %19, label %21

19:                                               ; preds = %12
  %20 = getelementptr inbounds nuw %"class.o3dgc::Vector.0", ptr %6, i32 0, i32 1
  store i64 32, ptr %20, align 8
  br label %21

21:                                               ; preds = %19, %12
  call void @llvm.lifetime.start.p0(i64 8, ptr %5) #10
  %22 = getelementptr inbounds nuw %"class.o3dgc::Vector.0", ptr %6, i32 0, i32 1
  %23 = load i64, ptr %22, align 8
  %24 = call { i64, i1 } @llvm.umul.with.overflow.i64(i64 %23, i64 8)
  %25 = extractvalue { i64, i1 } %24, 1
  %26 = extractvalue { i64, i1 } %24, 0
  %27 = select i1 %25, i64 -1, i64 %26
  %28 = call noalias noundef nonnull ptr @_Znam(i64 noundef %27) #12
  store ptr %28, ptr %5, align 8
  %29 = getelementptr inbounds nuw %"class.o3dgc::Vector.0", ptr %6, i32 0, i32 2
  %30 = load i64, ptr %29, align 8
  %31 = icmp ugt i64 %30, 0
  br i1 %31, label %32, label %44

32:                                               ; preds = %21
  %33 = load ptr, ptr %5, align 8
  %34 = getelementptr inbounds nuw %"class.o3dgc::Vector.0", ptr %6, i32 0, i32 0
  %35 = load ptr, ptr %34, align 8
  %36 = getelementptr inbounds nuw %"class.o3dgc::Vector.0", ptr %6, i32 0, i32 2
  %37 = load i64, ptr %36, align 8
  %38 = mul i64 %37, 8
  call void @llvm.memcpy.p0.p0.i64(ptr align 8 %33, ptr align 8 %35, i64 %38, i1 false)
  %39 = getelementptr inbounds nuw %"class.o3dgc::Vector.0", ptr %6, i32 0, i32 0
  %40 = load ptr, ptr %39, align 8
  %41 = icmp eq ptr %40, null
  br i1 %41, label %43, label %42

42:                                               ; preds = %32
  call void @_ZdaPv(ptr noundef %40) #11
  br label %43

43:                                               ; preds = %42, %32
  br label %44

44:                                               ; preds = %43, %21
  %45 = load ptr, ptr %5, align 8
  %46 = getelementptr inbounds nuw %"class.o3dgc::Vector.0", ptr %6, i32 0, i32 0
  store ptr %45, ptr %46, align 8
  call void @llvm.lifetime.end.p0(i64 8, ptr %5) #10
  br label %47

47:                                               ; preds = %44, %2
  %48 = load ptr, ptr %4, align 8
  %49 = load i64, ptr %48, align 8
  %50 = getelementptr inbounds nuw %"class.o3dgc::Vector.0", ptr %6, i32 0, i32 0
  %51 = load ptr, ptr %50, align 8
  %52 = getelementptr inbounds nuw %"class.o3dgc::Vector.0", ptr %6, i32 0, i32 2
  %53 = load i64, ptr %52, align 8
  %54 = add i64 %53, 1
  store i64 %54, ptr %52, align 8
  %55 = getelementptr inbounds nuw i64, ptr %51, i64 %53
  store i64 %49, ptr %55, align 8
  ret void
}

; Function Attrs: mustprogress uwtable
define linkonce_odr hidden noundef i64 @_ZNK5o3dgc12BinaryStream12ReadIntASCIIERm(ptr noundef nonnull align 8 dereferenceable(28) %0, ptr noundef nonnull align 8 dereferenceable(8) %1) #0 comdat align 2 {
  %3 = alloca ptr, align 8
  %4 = alloca ptr, align 8
  store ptr %0, ptr %3, align 8
  store ptr %1, ptr %4, align 8
  %5 = load ptr, ptr %3, align 8
  %6 = load ptr, ptr %4, align 8
  %7 = call noundef i64 @_ZNK5o3dgc12BinaryStream13ReadUIntASCIIERm(ptr noundef nonnull align 8 dereferenceable(28) %5, ptr noundef nonnull align 8 dereferenceable(8) %6)
  %8 = call noundef i64 @_ZN5o3dgc9UIntToIntEm(i64 noundef %7)
  ret i64 %8
}

; Function Attrs: mustprogress nounwind uwtable
define linkonce_odr hidden void @_ZN5o3dgc6VectorIlE5ClearEv(ptr noundef nonnull align 8 dereferenceable(24) %0) #2 comdat align 2 {
  %2 = alloca ptr, align 8
  store ptr %0, ptr %2, align 8
  %3 = load ptr, ptr %2, align 8
  %4 = getelementptr inbounds nuw %"class.o3dgc::Vector.0", ptr %3, i32 0, i32 2
  store i64 0, ptr %4, align 8
  ret void
}

; Function Attrs: mustprogress uwtable
define linkonce_odr hidden void @_ZN5o3dgc6VectorIlE8AllocateEm(ptr noundef nonnull align 8 dereferenceable(24) %0, i64 noundef %1) #0 comdat align 2 {
  %3 = alloca ptr, align 8
  %4 = alloca i64, align 8
  %5 = alloca ptr, align 8
  store ptr %0, ptr %3, align 8
  store i64 %1, ptr %4, align 8
  %6 = load ptr, ptr %3, align 8
  %7 = load i64, ptr %4, align 8
  %8 = getelementptr inbounds nuw %"class.o3dgc::Vector.0", ptr %6, i32 0, i32 1
  %9 = load i64, ptr %8, align 8
  %10 = icmp ugt i64 %7, %9
  br i1 %10, label %11, label %39

11:                                               ; preds = %2
  %12 = load i64, ptr %4, align 8
  %13 = getelementptr inbounds nuw %"class.o3dgc::Vector.0", ptr %6, i32 0, i32 1
  store i64 %12, ptr %13, align 8
  call void @llvm.lifetime.start.p0(i64 8, ptr %5) #10
  %14 = getelementptr inbounds nuw %"class.o3dgc::Vector.0", ptr %6, i32 0, i32 1
  %15 = load i64, ptr %14, align 8
  %16 = call { i64, i1 } @llvm.umul.with.overflow.i64(i64 %15, i64 8)
  %17 = extractvalue { i64, i1 } %16, 1
  %18 = extractvalue { i64, i1 } %16, 0
  %19 = select i1 %17, i64 -1, i64 %18
  %20 = call noalias noundef nonnull ptr @_Znam(i64 noundef %19) #12
  store ptr %20, ptr %5, align 8
  %21 = getelementptr inbounds nuw %"class.o3dgc::Vector.0", ptr %6, i32 0, i32 2
  %22 = load i64, ptr %21, align 8
  %23 = icmp ugt i64 %22, 0
  br i1 %23, label %24, label %36

24:                                               ; preds = %11
  %25 = load ptr, ptr %5, align 8
  %26 = getelementptr inbounds nuw %"class.o3dgc::Vector.0", ptr %6, i32 0, i32 0
  %27 = load ptr, ptr %26, align 8
  %28 = getelementptr inbounds nuw %"class.o3dgc::Vector.0", ptr %6, i32 0, i32 2
  %29 = load i64, ptr %28, align 8
  %30 = mul i64 %29, 8
  call void @llvm.memcpy.p0.p0.i64(ptr align 8 %25, ptr align 8 %27, i64 %30, i1 false)
  %31 = getelementptr inbounds nuw %"class.o3dgc::Vector.0", ptr %6, i32 0, i32 0
  %32 = load ptr, ptr %31, align 8
  %33 = icmp eq ptr %32, null
  br i1 %33, label %35, label %34

34:                                               ; preds = %24
  call void @_ZdaPv(ptr noundef %32) #11
  br label %35

35:                                               ; preds = %34, %24
  br label %36

36:                                               ; preds = %35, %11
  %37 = load ptr, ptr %5, align 8
  %38 = getelementptr inbounds nuw %"class.o3dgc::Vector.0", ptr %6, i32 0, i32 0
  store ptr %37, ptr %38, align 8
  call void @llvm.lifetime.end.p0(i64 8, ptr %5) #10
  br label %39

39:                                               ; preds = %36, %2
  ret void
}

; Function Attrs: mustprogress uwtable
define linkonce_odr hidden noundef i64 @_ZNK5o3dgc12BinaryStream15ReadUInt32ASCIIERm(ptr noundef nonnull align 8 dereferenceable(28) %0, ptr noundef nonnull align 8 dereferenceable(8) %1) #0 comdat align 2 {
  %3 = alloca ptr, align 8
  %4 = alloca ptr, align 8
  %5 = alloca i64, align 8
  %6 = alloca i64, align 8
  %7 = alloca i64, align 8
  store ptr %0, ptr %3, align 8
  store ptr %1, ptr %4, align 8
  %8 = load ptr, ptr %3, align 8
  call void @llvm.lifetime.start.p0(i64 8, ptr %5) #10
  store i64 0, ptr %5, align 8
  call void @llvm.lifetime.start.p0(i64 8, ptr %6) #10
  store i64 0, ptr %6, align 8
  call void @llvm.lifetime.start.p0(i64 8, ptr %7) #10
  store i64 0, ptr %7, align 8
  br label %9

9:                                                ; preds = %29, %2
  %10 = load i64, ptr %7, align 8
  %11 = icmp ult i64 %10, 5
  br i1 %11, label %13, label %12

12:                                               ; preds = %9
  call void @llvm.lifetime.end.p0(i64 8, ptr %7) #10
  br label %32

13:                                               ; preds = %9
  %14 = getelementptr inbounds nuw %"class.o3dgc::BinaryStream", ptr %8, i32 0, i32 0
  %15 = load ptr, ptr %4, align 8
  %16 = load i64, ptr %15, align 8
  %17 = add i64 %16, 1
  store i64 %17, ptr %15, align 8
  %18 = call noundef nonnull align 1 dereferenceable(1) ptr @_ZNK5o3dgc6VectorIhEixEm(ptr noundef nonnull align 8 dereferenceable(24) %14, i64 noundef %16)
  %19 = load i8, ptr %18, align 1
  %20 = zext i8 %19 to i32
  %21 = load i64, ptr %6, align 8
  %22 = trunc i64 %21 to i32
  %23 = shl i32 %20, %22
  %24 = sext i32 %23 to i64
  %25 = load i64, ptr %5, align 8
  %26 = add i64 %25, %24
  store i64 %26, ptr %5, align 8
  %27 = load i64, ptr %6, align 8
  %28 = add i64 %27, 7
  store i64 %28, ptr %6, align 8
  br label %29

29:                                               ; preds = %13
  %30 = load i64, ptr %7, align 8
  %31 = add i64 %30, 1
  store i64 %31, ptr %7, align 8
  br label %9, !llvm.loop !24

32:                                               ; preds = %12
  %33 = load i64, ptr %5, align 8
  call void @llvm.lifetime.end.p0(i64 8, ptr %6) #10
  call void @llvm.lifetime.end.p0(i64 8, ptr %5) #10
  ret i64 %33
}

; Function Attrs: mustprogress uwtable
define hidden noundef i32 @_ZN5o3dgc11LoadIntDataERNS_6VectorIlEERKNS_12BinaryStreamERm(ptr noundef nonnull align 8 dereferenceable(24) %0, ptr noundef nonnull align 8 dereferenceable(28) %1, ptr noundef nonnull align 8 dereferenceable(8) %2) #0 {
  %4 = alloca ptr, align 8
  %5 = alloca ptr, align 8
  %6 = alloca ptr, align 8
  %7 = alloca i64, align 8
  %8 = alloca i64, align 8
  %9 = alloca i64, align 8
  store ptr %0, ptr %4, align 8
  store ptr %1, ptr %5, align 8
  store ptr %2, ptr %6, align 8
  %10 = load ptr, ptr %5, align 8
  %11 = load ptr, ptr %6, align 8
  %12 = call noundef i64 @_ZNK5o3dgc12BinaryStream15ReadUInt32ASCIIERm(ptr noundef nonnull align 8 dereferenceable(28) %10, ptr noundef nonnull align 8 dereferenceable(8) %11)
  call void @llvm.lifetime.start.p0(i64 8, ptr %7) #10
  %13 = load ptr, ptr %5, align 8
  %14 = load ptr, ptr %6, align 8
  %15 = call noundef i64 @_ZNK5o3dgc12BinaryStream15ReadUInt32ASCIIERm(ptr noundef nonnull align 8 dereferenceable(28) %13, ptr noundef nonnull align 8 dereferenceable(8) %14)
  store i64 %15, ptr %7, align 8
  %16 = load ptr, ptr %4, align 8
  %17 = load i64, ptr %7, align 8
  call void @_ZN5o3dgc6VectorIlE8AllocateEm(ptr noundef nonnull align 8 dereferenceable(24) %16, i64 noundef %17)
  %18 = load ptr, ptr %4, align 8
  call void @_ZN5o3dgc6VectorIlE5ClearEv(ptr noundef nonnull align 8 dereferenceable(24) %18)
  call void @llvm.lifetime.start.p0(i64 8, ptr %8) #10
  store i64 0, ptr %8, align 8
  br label %19

19:                                               ; preds = %29, %3
  %20 = load i64, ptr %8, align 8
  %21 = load i64, ptr %7, align 8
  %22 = icmp ult i64 %20, %21
  br i1 %22, label %24, label %23

23:                                               ; preds = %19
  call void @llvm.lifetime.end.p0(i64 8, ptr %8) #10
  br label %32

24:                                               ; preds = %19
  %25 = load ptr, ptr %4, align 8
  call void @llvm.lifetime.start.p0(i64 8, ptr %9) #10
  %26 = load ptr, ptr %5, align 8
  %27 = load ptr, ptr %6, align 8
  %28 = call noundef i64 @_ZNK5o3dgc12BinaryStream12ReadIntASCIIERm(ptr noundef nonnull align 8 dereferenceable(28) %26, ptr noundef nonnull align 8 dereferenceable(8) %27)
  store i64 %28, ptr %9, align 8
  call void @_ZN5o3dgc6VectorIlE8PushBackERKl(ptr noundef nonnull align 8 dereferenceable(24) %25, ptr noundef nonnull align 8 dereferenceable(8) %9)
  call void @llvm.lifetime.end.p0(i64 8, ptr %9) #10
  br label %29

29:                                               ; preds = %24
  %30 = load i64, ptr %8, align 8
  %31 = add i64 %30, 1
  store i64 %31, ptr %8, align 8
  br label %19, !llvm.loop !26

32:                                               ; preds = %23
  call void @llvm.lifetime.end.p0(i64 8, ptr %7) #10
  ret i32 0
}